; ModuleID = 'source-C-CXX/28/1049.c'
source_filename = "source-C-CXX/28/1049.c"
target datalayout = "e-m:e-p270:32:32-p271:32:32-p272:64:64-i64:64-f80:128-n8:16:32:64-S128"
target triple = "x86_64-pc-linux-gnu"

@.str = private unnamed_addr constant [3 x i8] c"%d\00", align 1
@.str.1 = private unnamed_addr constant [7 x i8] c"%.3lf\0A\00", align 1

; Function Attrs: nofree nounwind sspstrong uwtable
define dso_local i32 @main() local_unnamed_addr #0 {
  %1 = alloca i32, align 4
  %2 = alloca [100 x i32], align 16
  %3 = bitcast i32* %1 to i8*
  call void @llvm.lifetime.start.p0i8(i64 4, i8* nonnull %3) #4
  %4 = bitcast [100 x i32]* %2 to i8*
  call void @llvm.lifetime.start.p0i8(i64 400, i8* nonnull %4) #4
  %5 = call i32 (i8*, ...) @__isoc99_scanf(i8* getelementptr inbounds ([3 x i8], [3 x i8]* @.str, i64 0, i64 0), i32* nonnull %1)
  %6 = load i32, i32* %1, align 4, !tbaa !5
  %7 = icmp slt i32 %6, 1
  br i1 %7, label %41, label %10

8:                                                ; preds = %10
  %9 = icmp slt i32 %15, 1
  br i1 %9, label %41, label %18

10:                                               ; preds = %0, %10
  %11 = phi i64 [ %14, %10 ], [ 1, %0 ]
  %12 = getelementptr inbounds [100 x i32], [100 x i32]* %2, i64 0, i64 %11
  %13 = call i32 (i8*, ...) @__isoc99_scanf(i8* getelementptr inbounds ([3 x i8], [3 x i8]* @.str, i64 0, i64 0), i32* nonnull %12)
  %14 = add nuw nsw i64 %11, 1
  %15 = load i32, i32* %1, align 4, !tbaa !5
  %16 = sext i32 %15 to i64
  %17 = icmp slt i64 %11, %16
  br i1 %17, label %10, label %8, !llvm.loop !9

18:                                               ; preds = %8, %34
  %19 = phi i64 [ %37, %34 ], [ 1, %8 ]
  %20 = getelementptr inbounds [100 x i32], [100 x i32]* %2, i64 0, i64 %19
  %21 = load i32, i32* %20, align 4, !tbaa !5
  %22 = sitofp i32 %21 to double
  %23 = icmp slt i32 %21, 1
  br i1 %23, label %34, label %24

24:                                               ; preds = %18, %24
  %25 = phi double [ %30, %24 ], [ 0.000000e+00, %18 ]
  %26 = phi double [ %32, %24 ], [ 1.000000e+00, %18 ]
  %27 = phi double [ %28, %24 ], [ 1.000000e+00, %18 ]
  %28 = phi double [ %31, %24 ], [ 2.000000e+00, %18 ]
  %29 = fdiv double %28, %27
  %30 = fadd double %25, %29
  %31 = fadd double %27, %28
  %32 = fadd double %26, 1.000000e+00
  %33 = fcmp ugt double %32, %22
  br i1 %33, label %34, label %24, !llvm.loop !11

34:                                               ; preds = %24, %18
  %35 = phi double [ 0.000000e+00, %18 ], [ %30, %24 ]
  %36 = call i32 (i8*, ...) @printf(i8* nonnull dereferenceable(1) getelementptr inbounds ([7 x i8], [7 x i8]* @.str.1, i64 0, i64 0), double %35)
  %37 = add nuw nsw i64 %19, 1
  %38 = load i32, i32* %1, align 4, !tbaa !5
  %39 = sext i32 %38 to i64
  %40 = icmp slt i64 %19, %39
  br i1 %40, label %18, label %41, !llvm.loop !12

41:                                               ; preds = %34, %0, %8
  call void @llvm.lifetime.end.p0i8(i64 400, i8* nonnull %4) #4
  call void @llvm.lifetime.end.p0i8(i64 4, i8* nonnull %3) #4
  ret i32 0
}

; Function Attrs: argmemonly mustprogress nofree nosync nounwind willreturn
declare void @llvm.lifetime.start.p0i8(i64 immarg, i8* nocapture) #1

; Function Attrs: nofree nounwind
declare noundef i32 @__isoc99_scanf(i8* nocapture noundef readonly, ...) local_unnamed_addr #2

; Function Attrs: nofree nounwind
declare noundef i32 @printf(i8* nocapture noundef readonly, ...) local_unnamed_addr #2

; Function Attrs: nofree norecurse nosync nounwind readnone sspstrong uwtable
define dso_local double @Q(i32 %0) local_unnamed_addr #3 {
  %2 = sitofp i32 %0 to double
  %3 = icmp slt i32 %0, 1
  br i1 %3, label %14, label %4

4:                                                ; preds = %1, %4
  %5 = phi double [ %10, %4 ], [ 0.000000e+00, %1 ]
  %6 = phi double [ %12, %4 ], [ 1.000000e+00, %1 ]
  %7 = phi double [ %8, %4 ], [ 1.000000e+00, %1 ]
  %8 = phi double [ %11, %4 ], [ 2.000000e+00, %1 ]
  %9 = fdiv double %8, %7
  %10 = fadd double %9, %5
  %11 = fadd double %8, %7
  %12 = fadd double %6, 1.000000e+00
  %13 = fcmp ugt double %12, %2
  br i1 %13, label %14, label %4, !llvm.loop !11

14:                                               ; preds = %4, %1
  %15 = phi double [ 0.000000e+00, %1 ], [ %10, %4 ]
  ret double %15
}

; Function Attrs: argmemonly mustprogress nofree nosync nounwind willreturn
declare void @llvm.lifetime.end.p0i8(i64 immarg, i8* nocapture) #1


!llvm.module.flags = !{!0, !1, !2, !3}
!llvm.ident = !{!4}

!0 = !{i32 1, !"wchar_size", i32 4}
!1 = !{i32 7, !"PIC Level", i32 2}
!2 = !{i32 7, !"PIE Level", i32 2}
!3 = !{i32 7, !"uwtable", i32 1}
!4 = !{!"clang version 13.0.0"}
!5 = !{!6, !6, i64 0}
!6 = !{!"int", !7, i64 0}
!7 = !{!"omnipotent char", !8, i64 0}
!8 = !{!"Simple C/C++ TBAA"}
!9 = distinct !{!9, !10}
!10 = !{!"llvm.loop.mustprogress"}
!11 = distinct !{!11, !10}
!12 = distinct !{!12, !10}
